target datalayout = "e-m:e-p270:32:32-p271:32:32-p272:64:64-i64:64-i128:128-f80:128-n8:16:32:64-S128"
target triple = "x86_64-pc-linux-gnu"

@.str.45 = private unnamed_addr constant [9 x i8] c"dumpPath\00", align 1
@.str.177 = private unnamed_addr constant [7 x i8] c"dsname\00", align 1
@hf_budb_DeleteVDP_curDumpId = internal global i32 0, align 4

; Function Attrs: null_pointer_is_valid sspstrong uwtable
define internal i32 @budb_dissect_int32(ptr noundef %0, i32 noundef %1, ptr noundef %2, ptr noundef %3, ptr noundef %4, ptr noundef %5, i32 noundef %6, i32 noundef %7) #0 {
  %9 = alloca ptr, align 8
  %10 = alloca i32, align 4
  %11 = alloca ptr, align 8
  %12 = alloca ptr, align 8
  %13 = alloca ptr, align 8
  %14 = alloca ptr, align 8
  %15 = alloca i32, align 4
  %16 = alloca i32, align 4
  store ptr %0, ptr %9, align 8
  store i32 %1, ptr %10, align 4
  store ptr %2, ptr %11, align 8
  store ptr %3, ptr %12, align 8
  store ptr %4, ptr %13, align 8
  store ptr %5, ptr %14, align 8
  store i32 %6, ptr %15, align 4
  store i32 %7, ptr %16, align 4
  %17 = load ptr, ptr %9, align 8
  %18 = load i32, ptr %10, align 4
  %19 = load ptr, ptr %11, align 8
  %20 = load ptr, ptr %12, align 8
  %21 = load ptr, ptr %13, align 8
  %22 = load ptr, ptr %14, align 8
  %23 = load i32, ptr %15, align 4
  %24 = call i32 @dissect_ndr_uint32(ptr noundef %17, i32 noundef %18, ptr noundef %19, ptr noundef %20, ptr noundef %21, ptr noundef %22, i32 noundef %23, ptr noundef null)
  store i32 %24, ptr %10, align 4
  %25 = load i32, ptr %10, align 4
  ret i32 %25
}

; Function Attrs: null_pointer_is_valid sspstrong uwtable
define internal i32 @budb_dissect_DeleteVDP_curDumpId(ptr noundef %0, i32 noundef %1, ptr noundef %2, ptr noundef %3, ptr noundef %4, ptr noundef %5) #0 {
  %7 = alloca ptr, align 8
  %8 = alloca i32, align 4
  %9 = alloca ptr, align 8
  %10 = alloca ptr, align 8
  %11 = alloca ptr, align 8
  %12 = alloca ptr, align 8
  %13 = alloca i32, align 4
  store ptr %0, ptr %7, align 8
  store i32 %1, ptr %8, align 4
  store ptr %2, ptr %9, align 8
  store ptr %3, ptr %10, align 8
  store ptr %4, ptr %11, align 8
  store ptr %5, ptr %12, align 8
  call void @llvm.lifetime.start.p0(i64 4, ptr %13) #4
  store i32 0, ptr %13, align 4
  %14 = load ptr, ptr %7, align 8
  %15 = load i32, ptr %8, align 4
  %16 = load ptr, ptr %9, align 8
  %17 = load ptr, ptr %10, align 8
  %18 = load ptr, ptr %11, align 8
  %19 = load ptr, ptr %12, align 8
  %20 = load i32, ptr @hf_budb_DeleteVDP_curDumpId, align 4
  %21 = load i32, ptr %13, align 4
  %22 = call i32 @budb_dissect_int32(ptr noundef %14, i32 noundef %15, ptr noundef %16, ptr noundef %17, ptr noundef %18, ptr noundef %19, i32 noundef %20, i32 noundef %21)
  store i32 %22, ptr %8, align 4
  %23 = load i32, ptr %8, align 4
  call void @llvm.lifetime.end.p0(i64 4, ptr %13) #4
  ret i32 %23
}

; Function Attrs: null_pointer_is_valid sspstrong uwtable
define internal i32 @ptr_budb_dissect_DeleteVDP_dumpPath(ptr noundef %0, i32 noundef %1, ptr noundef %2, ptr noundef %3, ptr noundef %4, ptr noundef %5) #0 {
  %7 = alloca ptr, align 8
  %8 = alloca i32, align 4
  %9 = alloca ptr, align 8
  %10 = alloca ptr, align 8
  %11 = alloca ptr, align 8
  %12 = alloca ptr, align 8
  store ptr %0, ptr %7, align 8
  store i32 %1, ptr %8, align 4
  store ptr %2, ptr %9, align 8
  store ptr %3, ptr %10, align 8
  store ptr %4, ptr %11, align 8
  store ptr %5, ptr %12, align 8
  %13 = load ptr, ptr %7, align 8
  %14 = load i32, ptr %8, align 4
  %15 = load ptr, ptr %9, align 8
  %16 = load ptr, ptr %10, align 8
  %17 = load ptr, ptr %11, align 8
  %18 = load ptr, ptr %12, align 8
  %19 = call i32 @dissect_ndr_toplevel_pointer(ptr noundef %13, i32 noundef %14, ptr noundef %15, ptr noundef %16, ptr noundef %17, ptr noundef %18, ptr noundef @budb_dissect_DeleteVDP_dumpPath, i32 noundef 3, ptr noundef @.str.45, i32 noundef -1)
  store i32 %19, ptr %8, align 4
  %20 = load i32, ptr %8, align 4
  ret i32 %20
}

; Function Attrs: null_pointer_is_valid sspstrong uwtable
define internal i32 @ptr_budb_dissect_DeleteVDP_dsname(ptr noundef %0, i32 noundef %1, ptr noundef %2, ptr noundef %3, ptr noundef %4, ptr noundef %5) #0 {
  %7 = alloca ptr, align 8
  %8 = alloca i32, align 4
  %9 = alloca ptr, align 8
  %10 = alloca ptr, align 8
  %11 = alloca ptr, align 8
  %12 = alloca ptr, align 8
  store ptr %0, ptr %7, align 8
  store i32 %1, ptr %8, align 4
  store ptr %2, ptr %9, align 8
  store ptr %3, ptr %10, align 8
  store ptr %4, ptr %11, align 8
  store ptr %5, ptr %12, align 8
  %13 = load ptr, ptr %7, align 8
  %14 = load i32, ptr %8, align 4
  %15 = load ptr, ptr %9, align 8
  %16 = load ptr, ptr %10, align 8
  %17 = load ptr, ptr %11, align 8
  %18 = load ptr, ptr %12, align 8
  %19 = call i32 @dissect_ndr_toplevel_pointer(ptr noundef %13, i32 noundef %14, ptr noundef %15, ptr noundef %16, ptr noundef %17, ptr noundef %18, ptr noundef @budb_dissect_DeleteVDP_dsname, i32 noundef 3, ptr noundef @.str.177, i32 noundef -1)
  store i32 %19, ptr %8, align 4
  %20 = load i32, ptr %8, align 4
  ret i32 %20
}

; Function Attrs: null_pointer_is_valid sspstrong uwtable
define internal i32 @budb_dissect_DeleteVDP_request(ptr noundef %0, i32 noundef %1, ptr noundef %2, ptr noundef %3, ptr noundef %4, ptr noundef %5) #0 {
  %7 = alloca ptr, align 8
  %8 = alloca i32, align 4
  %9 = alloca ptr, align 8
  %10 = alloca ptr, align 8
  %11 = alloca ptr, align 8
  %12 = alloca ptr, align 8
  store ptr %0, ptr %7, align 8
  store i32 %1, ptr %8, align 4
  store ptr %2, ptr %9, align 8
  store ptr %3, ptr %10, align 8
  store ptr %4, ptr %11, align 8
  store ptr %5, ptr %12, align 8
  %13 = load ptr, ptr %7, align 8
  %14 = load i32, ptr %8, align 4
  %15 = load ptr, ptr %9, align 8
  %16 = load ptr, ptr %10, align 8
  %17 = load ptr, ptr %11, align 8
  %18 = load ptr, ptr %12, align 8
  %19 = call i32 @ptr_budb_dissect_DeleteVDP_dsname(ptr noundef %13, i32 noundef %14, ptr noundef %15, ptr noundef %16, ptr noundef %17, ptr noundef %18)
  store i32 %19, ptr %8, align 4
  %20 = load ptr, ptr %9, align 8
  %21 = load ptr, ptr %7, align 8
  %22 = load i32, ptr %8, align 4
  %23 = load ptr, ptr %11, align 8
  %24 = load ptr, ptr %12, align 8
  %25 = call i32 @dissect_deferred_pointers(ptr noundef %20, ptr noundef %21, i32 noundef %22, ptr noundef %23, ptr noundef %24)
  store i32 %25, ptr %8, align 4
  %26 = load ptr, ptr %7, align 8
  %27 = load i32, ptr %8, align 4
  %28 = load ptr, ptr %9, align 8
  %29 = load ptr, ptr %10, align 8
  %30 = load ptr, ptr %11, align 8
  %31 = load ptr, ptr %12, align 8
  %32 = call i32 @ptr_budb_dissect_DeleteVDP_dumpPath(ptr noundef %26, i32 noundef %27, ptr noundef %28, ptr noundef %29, ptr noundef %30, ptr noundef %31)
  store i32 %32, ptr %8, align 4
  %33 = load ptr, ptr %9, align 8
  %34 = load ptr, ptr %7, align 8
  %35 = load i32, ptr %8, align 4
  %36 = load ptr, ptr %11, align 8
  %37 = load ptr, ptr %12, align 8
  %38 = call i32 @dissect_deferred_pointers(ptr noundef %33, ptr noundef %34, i32 noundef %35, ptr noundef %36, ptr noundef %37)
  store i32 %38, ptr %8, align 4
  %39 = load ptr, ptr %7, align 8
  %40 = load i32, ptr %8, align 4
  %41 = load ptr, ptr %9, align 8
  %42 = load ptr, ptr %10, align 8
  %43 = load ptr, ptr %11, align 8
  %44 = load ptr, ptr %12, align 8
  %45 = call i32 @budb_dissect_DeleteVDP_curDumpId(ptr noundef %39, i32 noundef %40, ptr noundef %41, ptr noundef %42, ptr noundef %43, ptr noundef %44)
  store i32 %45, ptr %8, align 4
  %46 = load ptr, ptr %9, align 8
  %47 = load ptr, ptr %7, align 8
  %48 = load i32, ptr %8, align 4
  %49 = load ptr, ptr %11, align 8
  %50 = load ptr, ptr %12, align 8
  %51 = call i32 @dissect_deferred_pointers(ptr noundef %46, ptr noundef %47, i32 noundef %48, ptr noundef %49, ptr noundef %50)
  store i32 %51, ptr %8, align 4
  %52 = load i32, ptr %8, align 4
  ret i32 %52
}